target datalayout = "e-m:e-p270:32:32-p271:32:32-p272:64:64-i64:64-i128:128-f80:128-n8:16:32:64-S128"
target triple = "x86_64-pc-linux-gnu"

%"class.pxrInternal_v0_24__pxrReserved__::TfToken" = type { %"class.pxrInternal_v0_24__pxrReserved__::TfPointerAndBits" }
%"class.pxrInternal_v0_24__pxrReserved__::TfPointerAndBits" = type { ptr }
%"struct.std::atomic.20" = type { %"struct.std::__atomic_base.21" }
%"struct.std::__atomic_base.21" = type { i32 }
%"struct.pxrInternal_v0_24__pxrReserved__::TfToken::_Rep" = type { %"struct.std::atomic.20", i32, i64, %"class.std::__cxx11::basic_string", ptr }
%"class.std::__cxx11::basic_string" = type { %"struct.std::__cxx11::basic_string<char>::_Alloc_hider", i64, %union.anon }
%"struct.std::__cxx11::basic_string<char>::_Alloc_hider" = type { ptr }
%union.anon = type { i64, [8 x i8] }

; Function Attrs: mustprogress nounwind uwtable
define linkonce_odr noundef i64 @_ZN32pxrInternal_v0_24__pxrReserved__16TfPointerAndBitsIKNS_7TfToken4_RepEE9_GetAlignEv() #0 comdat align 2 {
  ret i64 8
}

; Function Attrs: mustprogress nounwind uwtable
define linkonce_odr noundef i64 @_ZNK32pxrInternal_v0_24__pxrReserved__16TfPointerAndBitsIKNS_7TfToken4_RepEE11GetMaxValueEv(ptr noundef nonnull align 8 dereferenceable(8) %0) #0 comdat align 2 {
  %2 = alloca ptr, align 8
  store ptr %0, ptr %2, align 8
  %3 = call noundef i64 @_ZN32pxrInternal_v0_24__pxrReserved__16TfPointerAndBitsIKNS_7TfToken4_RepEE9_GetAlignEv() #2
  %4 = sub i64 %3, 1
  ret i64 %4
}

; Function Attrs: mustprogress nounwind uwtable
define linkonce_odr noundef ptr @_ZNK32pxrInternal_v0_24__pxrReserved__16TfPointerAndBitsIKNS_7TfToken4_RepEE6_AsPtrEm(ptr noundef nonnull align 8 dereferenceable(8) %0, i64 noundef %1) #0 comdat align 2 {
  %3 = alloca ptr, align 8
  %4 = alloca i64, align 8
  store ptr %0, ptr %3, align 8
  store i64 %1, ptr %4, align 8
  %5 = load i64, ptr %4, align 8
  %6 = inttoptr i64 %5 to ptr
  ret ptr %6
}

; Function Attrs: mustprogress nounwind uwtable
define linkonce_odr noundef i64 @_ZNK32pxrInternal_v0_24__pxrReserved__16TfPointerAndBitsIKNS_7TfToken4_RepEE11_GetBitMaskEv(ptr noundef nonnull align 8 dereferenceable(8) %0) #0 comdat align 2 personality ptr @__gxx_personality_v0 {
  %2 = alloca ptr, align 8
  store ptr %0, ptr %2, align 8
  %3 = load ptr, ptr %2, align 8
  %4 = invoke noundef i64 @_ZNK32pxrInternal_v0_24__pxrReserved__16TfPointerAndBitsIKNS_7TfToken4_RepEE11GetMaxValueEv(ptr noundef nonnull align 8 dereferenceable(8) %3)
          to label %5 unwind label %6

5:                                                ; preds = %1
  ret i64 %4

6:                                                ; preds = %1
  %7 = landingpad { ptr, i32 }
          catch ptr null
  %8 = extractvalue { ptr, i32 } %7, 0
  call void @__clang_call_terminate(ptr %8) #18
  unreachable
}

; Function Attrs: mustprogress nounwind uwtable
define linkonce_odr noundef i64 @_ZNK32pxrInternal_v0_24__pxrReserved__16TfPointerAndBitsIKNS_7TfToken4_RepEE6_AsIntEPS3_(ptr noundef nonnull align 8 dereferenceable(8) %0, ptr noundef %1) #0 comdat align 2 {
  %3 = alloca ptr, align 8
  %4 = alloca ptr, align 8
  store ptr %0, ptr %3, align 8
  store ptr %1, ptr %4, align 8
  %5 = load ptr, ptr %4, align 8
  %6 = ptrtoint ptr %5 to i64
  ret i64 %6
}

; Function Attrs: mustprogress nounwind uwtable
define linkonce_odr noundef ptr @_ZNK32pxrInternal_v0_24__pxrReserved__16TfPointerAndBitsIKNS_7TfToken4_RepEE7_GetPtrEv(ptr noundef nonnull align 8 dereferenceable(8) %0) #0 comdat align 2 {
  %2 = alloca ptr, align 8
  store ptr %0, ptr %2, align 8
  %3 = load ptr, ptr %2, align 8
  %4 = getelementptr inbounds nuw %"class.pxrInternal_v0_24__pxrReserved__::TfPointerAndBits", ptr %3, i32 0, i32 0
  %5 = load ptr, ptr %4, align 8
  %6 = call noundef i64 @_ZNK32pxrInternal_v0_24__pxrReserved__16TfPointerAndBitsIKNS_7TfToken4_RepEE6_AsIntEPS3_(ptr noundef nonnull align 8 dereferenceable(8) %3, ptr noundef %5) #2
  %7 = call noundef i64 @_ZNK32pxrInternal_v0_24__pxrReserved__16TfPointerAndBitsIKNS_7TfToken4_RepEE11_GetBitMaskEv(ptr noundef nonnull align 8 dereferenceable(8) %3) #2
  %8 = xor i64 %7, -1
  %9 = and i64 %6, %8
  %10 = call noundef ptr @_ZNK32pxrInternal_v0_24__pxrReserved__16TfPointerAndBitsIKNS_7TfToken4_RepEE6_AsPtrEm(ptr noundef nonnull align 8 dereferenceable(8) %3, i64 noundef %9) #2
  ret ptr %10
}

; Function Attrs: mustprogress nounwind uwtable
define linkonce_odr noundef i64 @_ZNK32pxrInternal_v0_24__pxrReserved__16TfPointerAndBitsIKNS_7TfToken4_RepEE8_GetBitsEv(ptr noundef nonnull align 8 dereferenceable(8) %0) #0 comdat align 2 {
  %2 = alloca ptr, align 8
  store ptr %0, ptr %2, align 8
  %3 = load ptr, ptr %2, align 8
  %4 = getelementptr inbounds nuw %"class.pxrInternal_v0_24__pxrReserved__::TfPointerAndBits", ptr %3, i32 0, i32 0
  %5 = load ptr, ptr %4, align 8
  %6 = call noundef i64 @_ZNK32pxrInternal_v0_24__pxrReserved__16TfPointerAndBitsIKNS_7TfToken4_RepEE6_AsIntEPS3_(ptr noundef nonnull align 8 dereferenceable(8) %3, ptr noundef %5) #2
  %7 = call noundef i64 @_ZNK32pxrInternal_v0_24__pxrReserved__16TfPointerAndBitsIKNS_7TfToken4_RepEE11_GetBitMaskEv(ptr noundef nonnull align 8 dereferenceable(8) %3) #2
  %8 = and i64 %6, %7
  ret i64 %8
}

; Function Attrs: mustprogress nounwind uwtable
define linkonce_odr void @_ZNK32pxrInternal_v0_24__pxrReserved__7TfToken4_Rep9DecrementEv(ptr noundef nonnull align 8 dereferenceable(56) %0) #0 comdat align 2 {
  %2 = alloca ptr, align 8
  %3 = alloca i32, align 4
  %4 = alloca i32, align 4
  %5 = alloca i32, align 4
  %6 = alloca i32, align 4
  %7 = alloca ptr, align 8
  store ptr %0, ptr %7, align 8
  %8 = load ptr, ptr %7, align 8
  %9 = getelementptr inbounds nuw %"struct.pxrInternal_v0_24__pxrReserved__::TfToken::_Rep", ptr %8, i32 0, i32 0
  store ptr %9, ptr %2, align 8
  store i32 2, ptr %3, align 4
  store i32 3, ptr %4, align 4
  %10 = load ptr, ptr %2, align 8
  %11 = load i32, ptr %4, align 4
  %12 = load i32, ptr %3, align 4
  store i32 %12, ptr %5, align 4
  switch i32 %11, label %13 [
    i32 1, label %16
    i32 2, label %16
    i32 3, label %19
    i32 4, label %22
    i32 5, label %25
  ]

13:                                               ; preds = %1
  %14 = load i32, ptr %5, align 4
  %15 = atomicrmw sub ptr %10, i32 %14 monotonic, align 4
  store i32 %15, ptr %6, align 4
  br label %28

16:                                               ; preds = %1, %1
  %17 = load i32, ptr %5, align 4
  %18 = atomicrmw sub ptr %10, i32 %17 acquire, align 4
  store i32 %18, ptr %6, align 4
  br label %28

19:                                               ; preds = %1
  %20 = load i32, ptr %5, align 4
  %21 = atomicrmw sub ptr %10, i32 %20 release, align 4
  store i32 %21, ptr %6, align 4
  br label %28

22:                                               ; preds = %1
  %23 = load i32, ptr %5, align 4
  %24 = atomicrmw sub ptr %10, i32 %23 acq_rel, align 4
  store i32 %24, ptr %6, align 4
  br label %28

25:                                               ; preds = %1
  %26 = load i32, ptr %5, align 4
  %27 = atomicrmw sub ptr %10, i32 %26 seq_cst, align 4
  store i32 %27, ptr %6, align 4
  br label %28

28:                                               ; preds = %25, %22, %19, %16, %13
  ret void
}

; Function Attrs: mustprogress nounwind uwtable
define linkonce_odr noundef ptr @_ZNK32pxrInternal_v0_24__pxrReserved__16TfPointerAndBitsIKNS_7TfToken4_RepEEptEv(ptr noundef nonnull align 8 dereferenceable(8) %0) #0 comdat align 2 {
  %2 = alloca ptr, align 8
  store ptr %0, ptr %2, align 8
  %3 = load ptr, ptr %2, align 8
  %4 = call noundef ptr @_ZNK32pxrInternal_v0_24__pxrReserved__16TfPointerAndBitsIKNS_7TfToken4_RepEE7_GetPtrEv(ptr noundef nonnull align 8 dereferenceable(8) %3) #2
  ret ptr %4
}

; Function Attrs: mustprogress nounwind uwtable
define linkonce_odr noundef zeroext i1 @_ZNK32pxrInternal_v0_24__pxrReserved__16TfPointerAndBitsIKNS_7TfToken4_RepEE6BitsAsIbEET_v(ptr noundef nonnull align 8 dereferenceable(8) %0) #0 comdat align 2 {
  %2 = alloca ptr, align 8
  store ptr %0, ptr %2, align 8
  %3 = load ptr, ptr %2, align 8
  %4 = call noundef i64 @_ZNK32pxrInternal_v0_24__pxrReserved__16TfPointerAndBitsIKNS_7TfToken4_RepEE8_GetBitsEv(ptr noundef nonnull align 8 dereferenceable(8) %3) #2
  %5 = icmp ne i64 %4, 0
  ret i1 %5
}

; Function Attrs: noreturn nounwind uwtable
define linkonce_odr hidden void @__clang_call_terminate(ptr noundef %0) #6 comdat {
  %2 = call ptr @__cxa_begin_catch(ptr %0) #2
  call void @_ZSt9terminatev() #18
  unreachable
}

; Function Attrs: mustprogress uwtable
define linkonce_odr void @_ZNK32pxrInternal_v0_24__pxrReserved__7TfToken10_RemoveRefEv(ptr noundef nonnull align 8 dereferenceable(8) %0) #3 comdat align 2 {
  %2 = alloca ptr, align 8
  store ptr %0, ptr %2, align 8
  %3 = load ptr, ptr %2, align 8
  %4 = getelementptr inbounds nuw %"class.pxrInternal_v0_24__pxrReserved__::TfToken", ptr %3, i32 0, i32 0
  %5 = call noundef zeroext i1 @_ZNK32pxrInternal_v0_24__pxrReserved__16TfPointerAndBitsIKNS_7TfToken4_RepEE6BitsAsIbEET_v(ptr noundef nonnull align 8 dereferenceable(8) %4) #2
  br i1 %5, label %7, label %6

6:                                                ; preds = %1
  br label %10

7:                                                ; preds = %1
  %8 = getelementptr inbounds nuw %"class.pxrInternal_v0_24__pxrReserved__::TfToken", ptr %3, i32 0, i32 0
  %9 = call noundef ptr @_ZNK32pxrInternal_v0_24__pxrReserved__16TfPointerAndBitsIKNS_7TfToken4_RepEEptEv(ptr noundef nonnull align 8 dereferenceable(8) %8) #2
  call void @_ZNK32pxrInternal_v0_24__pxrReserved__7TfToken4_Rep9DecrementEv(ptr noundef nonnull align 8 dereferenceable(56) %9)
  br label %10

10:                                               ; preds = %7, %6
  ret void
}

; Function Attrs: mustprogress nounwind uwtable
define linkonce_odr void @_ZN32pxrInternal_v0_24__pxrReserved__7TfTokenD2Ev(ptr noundef nonnull align 8 dereferenceable(8) %0) unnamed_addr #0 comdat align 2 personality ptr @__gxx_personality_v0 {
  %2 = alloca ptr, align 8
  store ptr %0, ptr %2, align 8
  %3 = load ptr, ptr %2, align 8
  invoke void @_ZNK32pxrInternal_v0_24__pxrReserved__7TfToken10_RemoveRefEv(ptr noundef nonnull align 8 dereferenceable(8) %3)
          to label %4 unwind label %5

4:                                                ; preds = %1
  ret void

5:                                                ; preds = %1
  %6 = landingpad { ptr, i32 }
          catch ptr null
  %7 = extractvalue { ptr, i32 } %6, 0
  call void @__clang_call_terminate(ptr %7) #18
  unreachable
}

; Function Attrs: uwtable
define internal void @__cxx_global_array_dtor.34(ptr noundef %0) #16 section ".text.startup" {
  %2 = alloca ptr, align 8
  store ptr %0, ptr %2, align 8
  br label %3

3:                                                ; preds = %3, %1
  %4 = phi ptr [ getelementptr inbounds (%"class.pxrInternal_v0_24__pxrReserved__::TfToken", ptr @_ZZN32pxrInternal_v0_24__pxrReserved__12_GLOBAL__N_114_CardsDrawMode17_CardsTextureNodeERKSt10shared_ptrINS_24HdTypedSampledDataSourceINS_12SdfAssetPathEEEERKS2_INS_16HdDataSourceBaseEEE11paramsNames, i64 5), %1 ], [ %5, %3 ]
  %5 = getelementptr inbounds %"class.pxrInternal_v0_24__pxrReserved__::TfToken", ptr %4, i64 -1
  call void @_ZN32pxrInternal_v0_24__pxrReserved__7TfTokenD2Ev(ptr noundef nonnull align 8 dereferenceable(8) %5) #2
  %6 = icmp eq ptr %5, @_ZZN32pxrInternal_v0_24__pxrReserved__12_GLOBAL__N_114_CardsDrawMode17_CardsTextureNodeERKSt10shared_ptrINS_24HdTypedSampledDataSourceINS_12SdfAssetPathEEEERKS2_INS_16HdDataSourceBaseEEE11paramsNames
  br i1 %6, label %7, label %3

7:                                                ; preds = %3
  ret void
}