; Function Attrs: nofree norecurse nounwind memory(readwrite, inaccessiblemem: none) uwtable
define internal void @__cxx_global_array_dtor.34(ptr nocapture readnone %0) #24 section ".text.startup" personality ptr @__gxx_personality_v0 {
  br label %2

2:                                                ; preds = %_ZN32pxrInternal_v0_24__pxrReserved__7TfTokenD2Ev.exit, %1
  %3 = phi ptr [ getelementptr inbounds (i8, ptr @_ZZN32pxrInternal_v0_24__pxrReserved__12_GLOBAL__N_114_CardsDrawMode17_CardsTextureNodeERKSt10shared_ptrINS_24HdTypedSampledDataSourceINS_12SdfAssetPathEEEERKS2_INS_16HdDataSourceBaseEEE11paramsNames, i64 40), %1 ], [ %4, %_ZN32pxrInternal_v0_24__pxrReserved__7TfTokenD2Ev.exit ]
  %4 = getelementptr inbounds i8, ptr %3, i64 -8
  %5 = load ptr, ptr %4, align 8
  %6 = ptrtoint ptr %5 to i64
  %7 = and i64 %6, 7
  %.not.i.i = icmp eq i64 %7, 0
  br i1 %.not.i.i, label %_ZN32pxrInternal_v0_24__pxrReserved__7TfTokenD2Ev.exit, label %8

8:                                                ; preds = %2
  %9 = and i64 %6, -8
  %10 = inttoptr i64 %9 to ptr
  %11 = atomicrmw sub ptr %10, i32 2 release, align 4
  br label %_ZN32pxrInternal_v0_24__pxrReserved__7TfTokenD2Ev.exit

_ZN32pxrInternal_v0_24__pxrReserved__7TfTokenD2Ev.exit: ; preds = %2, %8
  %12 = icmp eq ptr %4, @_ZZN32pxrInternal_v0_24__pxrReserved__12_GLOBAL__N_114_CardsDrawMode17_CardsTextureNodeERKSt10shared_ptrINS_24HdTypedSampledDataSourceINS_12SdfAssetPathEEEERKS2_INS_16HdDataSourceBaseEEE11paramsNames
  br i1 %12, label %13, label %2

13:                                               ; preds = %_ZN32pxrInternal_v0_24__pxrReserved__7TfTokenD2Ev.exit
  ret void
}